-----BEGIN PRIVATE KEY-----
MIIEuwIBADANBgkqhkiG9w0BAQEFAASCBKUwggShAgEAAoIBAQCOKvwSZR8OkAB0
RcfL573rQum03vHlgLv+O2TtmLJyz98IHRHzYyWF00pAWuURm01+lfvsPFNHtmQf
zzo87JkoR69a5AZMJFL7yXAMkpvVxOJI2m3zbdiYb0OuDtXHn5Aqlk/hDk+RCn8i
IBxBuULgemowBHYXT8oMFRTgW9XAdSfpqBiXJ249Rk+q5zFP44Mf8CGRBxb+ljv8
TiLXfZft2xDXJ0yAjx7/MrMfyEjqnI10mktp/hklKRrQQnYfueuGNhzqvFdNILzO
ZdfTWPUn8jD7XceRk5tj4bpEKhg01meTXaRSBDmcYC5ECJ+DqqOoMXi/bGZ0gDst
7kZLdPz7AgMBAAECggEAJot38WLSQ0f+n4elzl5j6wumwn+ptPAsyBaBXDvIsgEy
9oevLL5mV3y8Rmt+bMIfBiGS/m8yoyBL0CYGo6sAMWASJoHpRS6aAyMPypDbSF+L
fHYgVl4jWdzczC3Af1F/LFS5joqrPudKJc3v60/X1nXKIX+sJtDetlzm3pd3gii5
3g8zrHILQadN4uO1WNEoRhISXsisAgaurI9VMaF08cD5gT795TVpuG8vtbtqOuhs
9Ab90IKtFVGYL37+/066KxeiNlUorgQzIWco0SZgPwh6bNOE85aOLZcNDpzY/MKU
jmGQD7O5hqkMIOqTNipte/qiHD5PZe4K7XFH2mkjbQKBgQDHo/S8nUw0iB7BRKGj
TF3tWUPL3P0S6f0QiGRzU8+lHJ4LCGnvhwZuHEMXa2C+ETEA/Z5FNqg9S6rLnTii
DVgDiwudDx0zCKnmcXMZVIgSolc9Sq2PJPpygvTMl5RUI95ideYp2UqUvqZCXtoS
4HhkCJPo6AAM7XnOjCSKQ55UtQKBgQC2TXrMmPK//01L0c7cuL8p1OcgIYkhGCd7
/MFepT8wixbeK1gVX6oWr1u/vTSl+zBoZ0f0QYUMnKXboqaccnwMiRybMH+J4ZKe
wXrOOVNh6EPFymgVzShJj1qh4YxmSUPmWwkYlUUBMO+SJr2FQeLJ9WkaUjZkOpCz
2xOXIy1I7wKBgQC/xN2tZIe0GmE4k12VCCFdghaeuGudBIkjnXCoW4SlfQTPYkio
XpKtqJZF485tJQRmiDjFEYiwQIQSzLZ+68R0utbwCnmo8RSLGMVQOqPvCmQ0qwxm
6UVuRB80fBJudHoFKG1sG58JnM0GCij+YwMiTB8QZfLOeDs+Td43tlZb1QKBgD/C
9bJdxHnWx6g/J8UXcPUmm/gnAplqo1TAYLnDvkgyPbtTGanQHeN1TffQK3vqUVIS
3Z3W1LxGhdQ+HVwWxsBzrGezHMiS9v9D2LoMXtedryac1q7ZZL/lveNkygB0m6UU
LihE/S+feAt8NUlIdBQDG9Gy84c23KmrdDymdw5NAn9ehPchtnHtcLRicGUmmxEk
vkDUGpC2ghlgBMGEq1t4aUHNCAmslSIJmDYinfJeMPn3c6soXvCfjBifU6Dz4UTp
CTKtQ+nm3D41jE883ibMWKn1kCm85+K7/iQHEeI9ef6eqCtwtDk9i/TajMt/5Ntj
kVayojELKLLhdPxov6OF
-----END PRIVATE KEY-----
Certificate:
    Data:
        Version: 3 (0x2)
        Serial Number:
            77:9e:fc:ba:a0:8f:ab:79:f7:63:de:7a:7c:ad:d9:1f
        Signature Algorithm: sha256WithRSAEncryption
        Issuer: CN=Percona
        Validity
            Not Before: Mar 28 12:36:53 2023 GMT
            Not After : Jun 30 12:36:53 2025 GMT
        Subject: CN=pmm-test
        Subject Public Key Info:
            Public Key Algorithm: rsaEncryption
                Public-Key: (2048 bit)
                Modulus:
                    00:8e:2a:fc:12:65:1f:0e:90:00:74:45:c7:cb:e7:
                    bd:eb:42:e9:b4:de:f1:e5:80:bb:fe:3b:64:ed:98:
                    b2:72:cf:df:08:1d:11:f3:63:25:85:d3:4a:40:5a:
                    e5:11:9b:4d:7e:95:fb:ec:3c:53:47:b6:64:1f:cf:
                    3a:3c:ec:99:28:47:af:5a:e4:06:4c:24:52:fb:c9:
                    70:0c:92:9b:d5:c4:e2:48:da:6d:f3:6d:d8:98:6f:
                    43:ae:0e:d5:c7:9f:90:2a:96:4f:e1:0e:4f:91:0a:
                    7f:22:20:1c:41:b9:42:e0:7a:6a:30:04:76:17:4f:
                    ca:0c:15:14:e0:5b:d5:c0:75:27:e9:a8:18:97:27:
                    6e:3d:46:4f:aa:e7:31:4f:e3:83:1f:f0:21:91:07:
                    16:fe:96:3b:fc:4e:22:d7:7d:97:ed:db:10:d7:27:
                    4c:80:8f:1e:ff:32:b3:1f:c8:48:ea:9c:8d:74:9a:
                    4b:69:fe:19:25:29:1a:d0:42:76:1f:b9:eb:86:36:
                    1c:ea:bc:57:4d:20:bc:ce:65:d7:d3:58:f5:27:f2:
                    30:fb:5d:c7:91:93:9b:63:e1:ba:44:2a:18:34:d6:
                    67:93:5d:a4:52:04:39:9c:60:2e:44:08:9f:83:aa:
                    a3:a8:31:78:bf:6c:66:74:80:3b:2d:ee:46:4b:74:
                    fc:fb
                Exponent: 65537 (0x10001)
        X509v3 extensions:
            X509v3 Basic Constraints: 
                CA:FALSE
            X509v3 Subject Key Identifier: 
                09:9A:55:98:89:A8:5C:6C:76:42:0C:DE:A4:75:60:B3:D3:EE:FA:A2
            X509v3 Authority Key Identifier: 
                keyid:F4:73:D5:C5:48:3E:4F:B7:93:18:20:81:D0:02:7D:BD:23:52:E7:1A
                DirName:/CN=Percona
                serial:28:68:63:54:59:6A:F8:87:25:95:36:82:CA:25:68:26:3C:3B:C6:EC
            X509v3 Extended Key Usage: 
                TLS Web Client Authentication
            X509v3 Key Usage: 
                Digital Signature
    Signature Algorithm: sha256WithRSAEncryption
    Signature Value:
        97:64:31:41:c6:26:9d:a7:89:a2:29:40:ed:cb:2d:08:a0:ef:
        b7:e1:68:3d:7e:41:89:68:d0:8d:7c:7b:c9:66:e7:d3:b9:f0:
        04:67:d0:05:9f:47:a8:44:e2:70:de:19:a1:09:3f:4d:f8:14:
        35:14:75:9f:e3:73:ab:c0:5d:28:49:c4:8d:f8:56:86:d0:9f:
        56:ca:3f:af:28:51:ac:9f:ee:a0:97:ce:f1:be:cb:b8:fc:23:
        62:5b:3c:70:e4:77:12:f1:c7:0c:c4:da:b8:6d:11:4c:f3:90:
        5f:79:c4:19:2d:45:20:60:ba:1f:8a:21:7d:64:44:d7:56:34:
        b6:66:43:11:0a:e8:bf:fb:4a:23:d5:60:82:45:45:cc:40:ad:
        ea:cf:37:51:ba:a8:b1:5b:b2:20:fb:22:69:f0:12:9e:a4:0a:
        8c:10:88:ed:a8:b0:90:41:b1:33:69:31:ba:67:5b:93:54:9b:
        b4:99:43:39:46:1b:29:6e:16:76:8a:7c:e7:8e:69:e6:2e:a8:
        36:a7:5d:2b:1d:fb:16:dd:90:06:3d:d5:89:26:71:bc:ee:d8:
        57:ed:05:52:58:1b:ce:6f:2d:12:bc:b6:d1:16:f3:af:5e:1b:
        67:13:dd:e1:a5:1f:b6:b9:4b:94:8f:4c:d7:64:22:1b:1b:6a:
        1c:6c:3f:e7
-----BEGIN CERTIFICATE-----
MIIDTjCCAjagAwIBAgIQd578uqCPq3n3Y956fK3ZHzANBgkqhkiG9w0BAQsFADAS
MRAwDgYDVQQDDAdQZXJjb25hMB4XDTIzMDMyODEyMzY1M1oXDTI1MDYzMDEyMzY1
M1owEzERMA8GA1UEAwwIcG1tLXRlc3QwggEiMA0GCSqGSIb3DQEBAQUAA4IBDwAw
ggEKAoIBAQCOKvwSZR8OkAB0RcfL573rQum03vHlgLv+O2TtmLJyz98IHRHzYyWF
00pAWuURm01+lfvsPFNHtmQfzzo87JkoR69a5AZMJFL7yXAMkpvVxOJI2m3zbdiY
b0OuDtXHn5Aqlk/hDk+RCn8iIBxBuULgemowBHYXT8oMFRTgW9XAdSfpqBiXJ249
Rk+q5zFP44Mf8CGRBxb+ljv8TiLXfZft2xDXJ0yAjx7/MrMfyEjqnI10mktp/hkl
KRrQQnYfueuGNhzqvFdNILzOZdfTWPUn8jD7XceRk5tj4bpEKhg01meTXaRSBDmc
YC5ECJ+DqqOoMXi/bGZ0gDst7kZLdPz7AgMBAAGjgZ4wgZswCQYDVR0TBAIwADAd
BgNVHQ4EFgQUCZpVmImoXGx2QgzepHVgs9Pu+qIwTQYDVR0jBEYwRIAU9HPVxUg+
T7eTGCCB0AJ9vSNS5xqhFqQUMBIxEDAOBgNVBAMMB1BlcmNvbmGCFChoY1RZaviH
JZU2gsolaCY8O8bsMBMGA1UdJQQMMAoGCCsGAQUFBwMCMAsGA1UdDwQEAwIHgDAN
BgkqhkiG9w0BAQsFAAOCAQEAl2QxQcYmnaeJoilA7cstCKDvt+FoPX5BiWjQjXx7
yWbn07nwBGfQBZ9HqETicN4ZoQk/TfgUNRR1n+Nzq8BdKEnEjfhWhtCfVso/ryhR
rJ/uoJfO8b7LuPwjYls8cOR3EvHHDMTauG0RTPOQX3nEGS1FIGC6H4ohfWRE11Y0
tmZDEQrov/tKI9VggkVFzECt6s83UbqosVuyIPsiafASnqQKjBCI7aiwkEGxM2kx
umdbk1SbtJlDOUYbKW4Wdop8545p5i6oNqddKx37Ft2QBj3ViSZxvO7YV+0FUlgb
zm8tEry20Rbzr14bZxPd4aUftrlLlI9M12QiGxtqHGw/5w==
-----END CERTIFICATE-----
