-----BEGIN PRIVATE KEY-----
MIIEvAIBADANBgkqhkiG9w0BAQEFAASCBKYwggSiAgEAAoIBAQDBMSYCmBpCrV/S
EWGwhiZvJRMEBqT7hZHeaceWimLaaxxNHeIuIAf4BxLF8LJN421xjcm9ztfZv1+Q
fAUpW7eq5+EglXwIW0RnJvJVg6417MX7HEX8k7K+SXUnQKXNBPIYWVjYaqDTpfn+
bYQk69Nt/xabeLU7uKZkltqS45+nZefixkIy+qLYy+2jriqiDjhymGu+/WOHpaKB
wwYsJFrpBjzInGZUUN1F4R08A7Pnfj9hSpjRPfs7XzKbA5CzefbZQgTD/gyl9Aoj
GKuq7YRzGV5nk1KfmrM9q14nTlqY+fvMqbA18QcQykD6l8kp2RWjoqmICichuBcC
I9TA2A77AgMBAAECggEABAGP5zfeO4m61fFUVEPD4kQji87Tdv/DEZih8eY2vI7C
DHtVKF2zrJoA8qfWGrVfnJ4zE8OJSFOmmKlptfzX5yxdx74xzz6NQZJWLh3H7AhX
5qgkb2Nkrnt5eXHmvkSe/JBFvl8frKPhdjwxJE7bmIlUn662G2Ht2WIjcC5WLjNu
jWUdA+bHShT8Ya7MsphaBfbKmR8Hg7nBG7JOZW7VhUcGp5tI+Vk9NrPQKTZXvR3Z
l7F9PIb2ApDawkquO6Nq9DVJ2UNgf4gMc1Mn5B2qw5EqAsVq1L8yiErscJtMITRV
rdCi0LWOdbP/pS5bKFy5SDX3Lu3nPSg/dU8+HMFp2QKBgQDdy3s1oUpLvRQIFZNv
8LAvReFYbl+llNAJG6s2suFV//CPdtVUvEHRuzpA5ghomg6HGtRNBGBQ6oeMGvMX
NTJN+SPjLB4EF8HHM84wN88dErAHB08m6dB+yG/20jgMrOEby4TMnhdZlARHcvu1
fBbvOcCZ6bzzNy6zq9G18c3CVwKBgQDe/GsvCekBPHGLw2FMOz9nHR1x5R/6FgJ2
pzE5M1TsZqCFdBKvhS5lyJ8pwLHWbJh2nmrRiuXaQHq4jnyAl2ZAxnQE20U8L+gL
q70pRHw8klgXJxu+zJPmkTa+o0/O3SDPBctK8gLmU89T6lE6iWyyAsvCN27j2Iyp
rxnnzc+Z/QKBgCyYMiC5Wk/aJ4HsnKVgNnx6x3FZV9/aCO4b4xPvaYE6Iasm0IPm
CjHaPD86QSyO9SbTDSajH56FWVWhQYlEB+ZHlqChiTN3d13PG8D0J6+Hx17SaGbB
kks7j8+Huv9Jb0WAaSYfD0DSkv2ur89wsMfOy9vmdDhOuxQjEtpLUPynAoGAbYEY
Qelj+69rM2+ngIA4CrNJmn0izvWwEATbL3P96HodqmvuITQOLP3w69gtfVenJ9l0
K6NCbYPswGV4zs2K8ZSDtT7ZKU19bv3Pz0xKlpRnnjcecPyWRUxazhP1RWlii0gV
JaDju6i80EDp0w1Zy7GDzsTaOBpIOaw71JJFuSECgYBYsJKMIajPZlDdOFFSzKtx
G16tza2UOmDuUEjjItzq1EZfVSWe1RwEIdAe6XIj5J7E3wewvUOM4XW+hue2pTgL
SdHNnNT4AgtL524Dq0MmsAynlU9Sv1kOhuzZQrH4gKZBX9Ea13EBJ3khejkNJD/e
lUtEL6VFqekU1YMZ0BUe8g==
-----END PRIVATE KEY-----
Certificate:
    Data:
        Version: 3 (0x2)
        Serial Number:
            e4:79:33:e9:c7:71:ec:b8:99:7d:8a:cd:43:54:e0:4c
        Signature Algorithm: sha256WithRSAEncryption
        Issuer: CN=Percona
        Validity
            Not Before: Mar 28 12:35:48 2023 GMT
            Not After : Jun 30 12:35:48 2025 GMT
        Subject: CN=psmdbserver
        Subject Public Key Info:
            Public Key Algorithm: rsaEncryption
                Public-Key: (2048 bit)
                Modulus:
                    00:c1:31:26:02:98:1a:42:ad:5f:d2:11:61:b0:86:
                    26:6f:25:13:04:06:a4:fb:85:91:de:69:c7:96:8a:
                    62:da:6b:1c:4d:1d:e2:2e:20:07:f8:07:12:c5:f0:
                    b2:4d:e3:6d:71:8d:c9:bd:ce:d7:d9:bf:5f:90:7c:
                    05:29:5b:b7:aa:e7:e1:20:95:7c:08:5b:44:67:26:
                    f2:55:83:ae:35:ec:c5:fb:1c:45:fc:93:b2:be:49:
                    75:27:40:a5:cd:04:f2:18:59:58:d8:6a:a0:d3:a5:
                    f9:fe:6d:84:24:eb:d3:6d:ff:16:9b:78:b5:3b:b8:
                    a6:64:96:da:92:e3:9f:a7:65:e7:e2:c6:42:32:fa:
                    a2:d8:cb:ed:a3:ae:2a:a2:0e:38:72:98:6b:be:fd:
                    63:87:a5:a2:81:c3:06:2c:24:5a:e9:06:3c:c8:9c:
                    66:54:50:dd:45:e1:1d:3c:03:b3:e7:7e:3f:61:4a:
                    98:d1:3d:fb:3b:5f:32:9b:03:90:b3:79:f6:d9:42:
                    04:c3:fe:0c:a5:f4:0a:23:18:ab:aa:ed:84:73:19:
                    5e:67:93:52:9f:9a:b3:3d:ab:5e:27:4e:5a:98:f9:
                    fb:cc:a9:b0:35:f1:07:10:ca:40:fa:97:c9:29:d9:
                    15:a3:a2:a9:88:0a:27:21:b8:17:02:23:d4:c0:d8:
                    0e:fb
                Exponent: 65537 (0x10001)
        X509v3 extensions:
            X509v3 Basic Constraints: 
                CA:FALSE
            X509v3 Subject Key Identifier: 
                7F:B8:7B:D0:06:D7:F5:F8:5C:8A:09:1D:93:B2:FB:64:0E:60:D1:F5
            X509v3 Authority Key Identifier: 
                keyid:F4:73:D5:C5:48:3E:4F:B7:93:18:20:81:D0:02:7D:BD:23:52:E7:1A
                DirName:/CN=Percona
                serial:28:68:63:54:59:6A:F8:87:25:95:36:82:CA:25:68:26:3C:3B:C6:EC
            X509v3 Extended Key Usage: 
                TLS Web Server Authentication
            X509v3 Key Usage: 
                Digital Signature, Key Encipherment
            X509v3 Subject Alternative Name: 
                DNS:*, IP Address:127.0.0.1
    Signature Algorithm: sha256WithRSAEncryption
    Signature Value:
        59:f5:65:a8:31:d6:8a:8b:36:cf:eb:dc:d1:e8:d0:ab:d9:f7:
        17:d4:5c:37:de:f3:58:89:ab:55:2b:92:1c:77:7e:2d:91:69:
        33:fe:93:a0:ae:b9:5b:79:32:f6:ef:cd:7c:e6:dd:47:4c:d6:
        8c:61:0e:0d:a4:59:c3:af:ae:44:9e:47:c7:3c:ba:fc:a7:02:
        0a:3e:4d:a5:59:94:91:cf:72:12:7d:e0:c4:1c:b4:2c:55:18:
        1b:f4:77:f0:8e:28:ae:5f:90:d2:b3:df:b1:6f:59:86:75:24:
        48:3d:4d:fb:93:11:07:7d:cc:54:9b:d0:ea:50:25:2a:27:f5:
        df:d0:2c:23:89:79:e8:f5:90:e9:98:bf:2c:fe:fc:54:4d:dc:
        5c:7b:34:1b:54:58:a9:1f:53:ba:90:6b:15:46:57:68:e4:88:
        d7:47:c6:3b:42:c8:3d:51:c7:2e:42:44:96:69:e7:1b:7d:0b:
        a6:68:e7:2f:73:c0:d5:34:19:b1:f7:d3:1e:26:38:d3:bb:e5:
        e2:37:62:e7:9d:00:5c:dc:dd:da:5d:b5:7f:4a:c3:30:20:28:
        7e:79:b5:58:fe:94:a7:c1:d3:48:d4:0a:8e:57:07:85:67:05:
        41:ee:14:e2:c8:67:3f:e3:c2:58:17:a4:36:b9:1f:c3:32:02:
        f9:11:09:35
-----BEGIN CERTIFICATE-----
MIIDZjCCAk6gAwIBAgIRAOR5M+nHcey4mX2KzUNU4EwwDQYJKoZIhvcNAQELBQAw
EjEQMA4GA1UEAwwHUGVyY29uYTAeFw0yMzAzMjgxMjM1NDhaFw0yNTA2MzAxMjM1
NDhaMBYxFDASBgNVBAMMC3BzbWRic2VydmVyMIIBIjANBgkqhkiG9w0BAQEFAAOC
AQ8AMIIBCgKCAQEAwTEmApgaQq1f0hFhsIYmbyUTBAak+4WR3mnHlopi2mscTR3i
LiAH+AcSxfCyTeNtcY3Jvc7X2b9fkHwFKVu3qufhIJV8CFtEZybyVYOuNezF+xxF
/JOyvkl1J0ClzQTyGFlY2Gqg06X5/m2EJOvTbf8Wm3i1O7imZJbakuOfp2Xn4sZC
Mvqi2Mvto64qog44cphrvv1jh6WigcMGLCRa6QY8yJxmVFDdReEdPAOz534/YUqY
0T37O18ymwOQs3n22UIEw/4MpfQKIxirqu2EcxleZ5NSn5qzPateJ05amPn7zKmw
NfEHEMpA+pfJKdkVo6KpiAonIbgXAiPUwNgO+wIDAQABo4GyMIGvMAkGA1UdEwQC
MAAwHQYDVR0OBBYEFH+4e9AG1/X4XIoJHZOy+2QOYNH1ME0GA1UdIwRGMESAFPRz
1cVIPk+3kxgggdACfb0jUucaoRakFDASMRAwDgYDVQQDDAdQZXJjb25hghQoaGNU
WWr4hyWVNoLKJWgmPDvG7DATBgNVHSUEDDAKBggrBgEFBQcDATALBgNVHQ8EBAMC
BaAwEgYDVR0RBAswCYIBKocEfwAAATANBgkqhkiG9w0BAQsFAAOCAQEAWfVlqDHW
ios2z+vc0ejQq9n3F9RcN97zWImrVSuSHHd+LZFpM/6ToK65W3ky9u/NfObdR0zW
jGEODaRZw6+uRJ5Hxzy6/KcCCj5NpVmUkc9yEn3gxBy0LFUYG/R38I4orl+Q0rPf
sW9ZhnUkSD1N+5MRB33MVJvQ6lAlKif139AsI4l56PWQ6Zi/LP78VE3cXHs0G1RY
qR9TupBrFUZXaOSI10fGO0LIPVHHLkJElmnnG30LpmjnL3PA1TQZsffTHiY407vl
4jdi550AXNzd2l21f0rDMCAofnm1WP6Up8HTSNQKjlcHhWcFQe4U4shnP+PCWBek
NrkfwzIC+REJNQ==
-----END CERTIFICATE-----
