-----BEGIN PRIVATE KEY-----
MIIEvAIBADANBgkqhkiG9w0BAQEFAASCBKYwggSiAgEAAoIBAQC+C8S5NWUOR2Ax
rTDLlZYZxqx6SWP/9sMZmoRhQIGgXKy9mogQNJSly8FQ5ic6rcLqgVc+oK+5p6QI
Kgb6sP/hiRGbdKUFaLD4AIea7zJWRga4Io+Tw5PgKTVRW0qYtnvahlram6Vr+VOl
nKuMx1yuKf1+qOhtg38hMrGL46uVVayHvgGBliIeKEy8TDGxXnFqeDzncT5ixhGS
Pcd6jeX8GTNwAvDfDEBAvOCQ7UX9ws0J97p8bLo9wbf8wJeDmumQvdsdbH+LNaaV
VWvm9508I5lKjJD6v94m0BljrT9I/MbKuwyuI+ZqT56AYMiY9gYcN91im/sl8xIK
zAa/YTuXAgMBAAECggEAHV41MsfBC5FVGKgiW7uMfAQ7IBSaSvJHmPvLTDoLLgxU
N2KbdyGg/PP9NjKyyjsS3WlKYae0MBTrYMWZ2YCjsicb3PGMFMdmXZS7X+Jp3XIp
1Keml1eIUQIdNqrMXsgIYK8VeCXITOS1G+kXi4Q9Wr6raTjR3iaNbURnsm3m1Icp
ibqq4WPcxi6yBLmL7x4OBef++l73GUtVLmxoWm4Kxxy+kXzT0e7v3+6kBLY12Jrv
qIKL3KWDbGcldNfwqxzIlWDLbcehbwDYJSjewJW6ZH+sNzuF1vs/mRkhskKljhpC
YCOBl4AzMeIlpKMYI1HveDnpveRbfSoOX8VRCSZsuQKBgQD7Bgat7yGESC5+npZ6
5MGb4jjDDVUYXe4WWvHwhD25dTeFPGenzCSvE70sOpGkp37gu3TE66nFH7wSMUm1
fYp91zHFHtjm+gzc6yzpGcUusRrQyCnhnAhftHlpnxwmLl033EjTQgPYlW392dBx
ZitFrV2hGcw6VV69KcfCqkVReQKBgQDB0EYnxunMw0Vknx4OchFzA2nBgUkX0aU5
av/ixV2UGTA59MgOoAx9cygf74W9zekEjKOVV0u7wGq8m7EvhhjSGG4fwywkPFH/
0nNVzvEQcOu4mXIDntgWaE9pbDZoA8Ony21KEUuG2LPJJqcSKsos9XJVD76eLwqE
On60E4FBjwKBgESYl/it8TXJ19LIGY0JuBKWFjbPDOL0wBwhzB2StZ9ZdcuV/ylu
ctPZDAfrFWOuVdCpyTYKxEDW9DjweRj8bn0G8lXQoSs1R5CTP5mPbj/dK9vD5xX8
4pjso4UGctXIM7cRHmGEl7J22zDUdc6XQdnvjzd36kRCkfoVUb5Tc0/ZAoGAVFGo
M+X2EX9i0UPob6BwtvjlKap1gkdS+ofyi1YSQDw1HwG/h51Z0bon2rz6Enlixvfo
szAnYqdzyFpz25kbc0vtnSPsMFeN1R5ZzxsZBW4bH1SipbCVkioPYm4RvW7l0DpQ
ccjUcvYUQY7vYJf9HVIrS5Zt96O/j4djWDSkJ0ECgYAtkElGbXiGjSsfUl7lXugT
XpMQt1TP9s40SQgybmYfsBYaoK9wUMGnNMD9I6Yw8Hq3r72+VutGZ9PtuMswNQgt
A4ijqiypi9H5lt6s8EwpUVUERDDJO7t2JQeojOpJ5r9o6nDv5/aT969+0uf0NuB0
PebZCiEINUX1hykaMaWMDw==
-----END PRIVATE KEY-----
Certificate:
    Data:
        Version: 3 (0x2)
        Serial Number:
            82:17:87:ec:93:30:c7:28:d9:a3:1a:5d:7d:36:e3:82
        Signature Algorithm: sha256WithRSAEncryption
        Issuer: CN=Percona
        Validity
            Not Before: Mar 27 17:20:42 2023 GMT
            Not After : Jun 29 17:20:42 2025 GMT
        Subject: CN=psmdb
        Subject Public Key Info:
            Public Key Algorithm: rsaEncryption
                Public-Key: (2048 bit)
                Modulus:
                    00:be:0b:c4:b9:35:65:0e:47:60:31:ad:30:cb:95:
                    96:19:c6:ac:7a:49:63:ff:f6:c3:19:9a:84:61:40:
                    81:a0:5c:ac:bd:9a:88:10:34:94:a5:cb:c1:50:e6:
                    27:3a:ad:c2:ea:81:57:3e:a0:af:b9:a7:a4:08:2a:
                    06:fa:b0:ff:e1:89:11:9b:74:a5:05:68:b0:f8:00:
                    87:9a:ef:32:56:46:06:b8:22:8f:93:c3:93:e0:29:
                    35:51:5b:4a:98:b6:7b:da:86:5a:da:9b:a5:6b:f9:
                    53:a5:9c:ab:8c:c7:5c:ae:29:fd:7e:a8:e8:6d:83:
                    7f:21:32:b1:8b:e3:ab:95:55:ac:87:be:01:81:96:
                    22:1e:28:4c:bc:4c:31:b1:5e:71:6a:78:3c:e7:71:
                    3e:62:c6:11:92:3d:c7:7a:8d:e5:fc:19:33:70:02:
                    f0:df:0c:40:40:bc:e0:90:ed:45:fd:c2:cd:09:f7:
                    ba:7c:6c:ba:3d:c1:b7:fc:c0:97:83:9a:e9:90:bd:
                    db:1d:6c:7f:8b:35:a6:95:55:6b:e6:f7:9d:3c:23:
                    99:4a:8c:90:fa:bf:de:26:d0:19:63:ad:3f:48:fc:
                    c6:ca:bb:0c:ae:23:e6:6a:4f:9e:80:60:c8:98:f6:
                    06:1c:37:dd:62:9b:fb:25:f3:12:0a:cc:06:bf:61:
                    3b:97
                Exponent: 65537 (0x10001)
        X509v3 extensions:
            X509v3 Basic Constraints: 
                CA:FALSE
            X509v3 Subject Key Identifier: 
                6B:2B:8B:C5:84:35:B7:88:D5:4C:C1:85:95:4E:04:A9:22:95:FE:DD
            X509v3 Authority Key Identifier: 
                keyid:A4:58:25:4C:DD:B6:71:3E:E1:93:D2:A8:F6:74:B3:AC:37:44:B0:C9
                DirName:/CN=Percona
                serial:67:E6:9C:E3:10:90:FA:69:18:CE:F2:6B:CA:83:D9:77:8B:20:92:C6
            X509v3 Extended Key Usage: 
                TLS Web Server Authentication
            X509v3 Key Usage: 
                Digital Signature, Key Encipherment
            X509v3 Subject Alternative Name: 
                DNS:*, IP Address:127.0.0.1
    Signature Algorithm: sha256WithRSAEncryption
    Signature Value:
        2b:85:2d:3a:11:89:24:42:61:16:43:83:13:8d:28:47:8b:e8:
        58:bf:11:31:f6:28:48:d5:b1:75:90:a4:a9:e3:8c:67:87:6c:
        4b:bb:93:b1:21:8d:50:57:26:9d:11:56:a4:43:a1:c0:20:49:
        7d:7f:16:89:7a:9a:ac:b0:f8:98:06:e2:1b:8b:8d:cd:b2:2e:
        f9:5f:c9:38:2f:95:80:df:3b:5b:2d:d7:31:90:fe:06:5c:95:
        c8:05:07:7a:74:d3:b2:5c:15:6a:4b:76:de:c8:40:32:3b:9c:
        2c:79:8b:18:b5:9b:59:71:6f:1d:fa:d2:2c:53:70:49:58:f9:
        66:84:d8:f5:e5:9b:63:49:fd:f2:ad:2f:ec:af:73:1a:09:96:
        6a:85:fc:c1:e6:5a:44:ad:43:c6:33:1f:60:c4:91:d8:1f:d6:
        0d:11:39:97:59:96:e5:0d:ab:63:47:94:c6:30:a7:7c:f8:a7:
        00:b8:c3:8a:a7:07:f1:60:85:2a:95:85:3a:03:ee:00:0b:b9:
        3e:4a:5f:b8:4f:a9:7f:55:69:65:f9:a8:44:ca:65:89:2b:0a:
        fc:82:79:20:fe:27:3a:3c:2e:68:e3:66:00:4c:a7:25:97:46:
        3f:fa:43:4b:a4:69:3c:8c:d7:8c:9c:d2:52:95:45:4e:27:d1:
        62:13:a5:c0
-----BEGIN CERTIFICATE-----
MIIDYDCCAkigAwIBAgIRAIIXh+yTMMco2aMaXX0244IwDQYJKoZIhvcNAQELBQAw
EjEQMA4GA1UEAwwHUGVyY29uYTAeFw0yMzAzMjcxNzIwNDJaFw0yNTA2MjkxNzIw
NDJaMBAxDjAMBgNVBAMMBXBzbWRiMIIBIjANBgkqhkiG9w0BAQEFAAOCAQ8AMIIB
CgKCAQEAvgvEuTVlDkdgMa0wy5WWGcaseklj//bDGZqEYUCBoFysvZqIEDSUpcvB
UOYnOq3C6oFXPqCvuaekCCoG+rD/4YkRm3SlBWiw+ACHmu8yVkYGuCKPk8OT4Ck1
UVtKmLZ72oZa2pula/lTpZyrjMdcrin9fqjobYN/ITKxi+OrlVWsh74BgZYiHihM
vEwxsV5xang853E+YsYRkj3Heo3l/BkzcALw3wxAQLzgkO1F/cLNCfe6fGy6PcG3
/MCXg5rpkL3bHWx/izWmlVVr5vedPCOZSoyQ+r/eJtAZY60/SPzGyrsMriPmak+e
gGDImPYGHDfdYpv7JfMSCswGv2E7lwIDAQABo4GyMIGvMAkGA1UdEwQCMAAwHQYD
VR0OBBYEFGsri8WENbeI1UzBhZVOBKkilf7dME0GA1UdIwRGMESAFKRYJUzdtnE+
4ZPSqPZ0s6w3RLDJoRakFDASMRAwDgYDVQQDDAdQZXJjb25hghRn5pzjEJD6aRjO
8mvKg9l3iyCSxjATBgNVHSUEDDAKBggrBgEFBQcDATALBgNVHQ8EBAMCBaAwEgYD
VR0RBAswCYIBKocEfwAAATANBgkqhkiG9w0BAQsFAAOCAQEAK4UtOhGJJEJhFkOD
E40oR4voWL8RMfYoSNWxdZCkqeOMZ4dsS7uTsSGNUFcmnRFWpEOhwCBJfX8WiXqa
rLD4mAbiG4uNzbIu+V/JOC+VgN87Wy3XMZD+BlyVyAUHenTTslwVakt23shAMjuc
LHmLGLWbWXFvHfrSLFNwSVj5ZoTY9eWbY0n98q0v7K9zGgmWaoX8weZaRK1DxjMf
YMSR2B/WDRE5l1mW5Q2rY0eUxjCnfPinALjDiqcH8WCFKpWFOgPuAAu5PkpfuE+p
f1VpZfmoRMpliSsK/IJ5IP4nOjwuaONmAEynJZdGP/pDS6RpPIzXjJzSUpVFTifR
YhOlwA==
-----END CERTIFICATE-----
